target datalayout = "e-m:e-p270:32:32-p271:32:32-p272:64:64-i64:64-i128:128-f80:128-n8:16:32:64-S128"
target triple = "x86_64-pc-linux-gnu"

%struct.expert_field = type { i32, i32 }

@hf_ansi_801_reserved_bits = internal global i32 0, align 4
@hf_ansi_801_dopp_req = internal global i32 0, align 4
@hf_ansi_801_add_dopp_req = internal global i32 0, align 4
@hf_ansi_801_code_ph_par_req = internal global i32 0, align 4
@hf_ansi_801_az_el_req = internal global i32 0, align 4
@ei_ansi_801_extraneous_data = internal global %struct.expert_field zeroinitializer, align 4
@ei_ansi_801_short_data = internal global %struct.expert_field zeroinitializer, align 4

; Function Attrs: null_pointer_is_valid sspstrong uwtable
define internal void @rev_req_gps_acq_ass(ptr noundef %0, ptr noundef %1, ptr noundef %2, i32 noundef %3, i32 noundef %4) #0 {
  %6 = alloca ptr, align 8
  %7 = alloca ptr, align 8
  %8 = alloca ptr, align 8
  %9 = alloca i32, align 4
  %10 = alloca i32, align 4
  %11 = alloca i32, align 4
  %12 = alloca i32, align 4
  %13 = alloca i32, align 4
  store ptr %0, ptr %6, align 8
  store ptr %1, ptr %7, align 8
  store ptr %2, ptr %8, align 8
  store i32 %3, ptr %9, align 4
  store i32 %4, ptr %10, align 4
  call void @llvm.lifetime.start.p0(i64 4, ptr %11) #6
  call void @llvm.lifetime.start.p0(i64 4, ptr %12) #6
  %14 = load i32, ptr %9, align 4
  %15 = icmp ult i32 %14, 1
  br i1 %15, label %16, label %23

16:                                               ; preds = %5
  %17 = load ptr, ptr %8, align 8
  %18 = load ptr, ptr %7, align 8
  %19 = load ptr, ptr %6, align 8
  %20 = load i32, ptr %10, align 4
  %21 = load i32, ptr %9, align 4
  %22 = call ptr @proto_tree_add_expert(ptr noundef %17, ptr noundef %18, ptr noundef @ei_ansi_801_short_data, ptr noundef %19, i32 noundef %20, i32 noundef %21)
  store i32 1, ptr %13, align 4
  br label %75

23:                                               ; preds = %5
  %24 = load i32, ptr %10, align 4
  store i32 %24, ptr %11, align 4
  %25 = load i32, ptr %10, align 4
  %26 = shl i32 %25, 3
  store i32 %26, ptr %12, align 4
  %27 = load ptr, ptr %8, align 8
  %28 = load i32, ptr @hf_ansi_801_dopp_req, align 4
  %29 = load ptr, ptr %6, align 8
  %30 = load i32, ptr %12, align 4
  %31 = add i32 %30, 1
  store i32 %31, ptr %12, align 4
  %32 = call ptr @proto_tree_add_bits_item(ptr noundef %27, i32 noundef %28, ptr noundef %29, i32 noundef %30, i32 noundef 1, i32 noundef 0)
  %33 = load ptr, ptr %8, align 8
  %34 = load i32, ptr @hf_ansi_801_add_dopp_req, align 4
  %35 = load ptr, ptr %6, align 8
  %36 = load i32, ptr %12, align 4
  %37 = add i32 %36, 1
  store i32 %37, ptr %12, align 4
  %38 = call ptr @proto_tree_add_bits_item(ptr noundef %33, i32 noundef %34, ptr noundef %35, i32 noundef %36, i32 noundef 1, i32 noundef 0)
  %39 = load ptr, ptr %8, align 8
  %40 = load i32, ptr @hf_ansi_801_code_ph_par_req, align 4
  %41 = load ptr, ptr %6, align 8
  %42 = load i32, ptr %12, align 4
  %43 = add i32 %42, 1
  store i32 %43, ptr %12, align 4
  %44 = call ptr @proto_tree_add_bits_item(ptr noundef %39, i32 noundef %40, ptr noundef %41, i32 noundef %42, i32 noundef 1, i32 noundef 0)
  %45 = load ptr, ptr %8, align 8
  %46 = load i32, ptr @hf_ansi_801_az_el_req, align 4
  %47 = load ptr, ptr %6, align 8
  %48 = load i32, ptr %12, align 4
  %49 = add i32 %48, 1
  store i32 %49, ptr %12, align 4
  %50 = call ptr @proto_tree_add_bits_item(ptr noundef %45, i32 noundef %46, ptr noundef %47, i32 noundef %48, i32 noundef 1, i32 noundef 0)
  %51 = load ptr, ptr %8, align 8
  %52 = load i32, ptr @hf_ansi_801_reserved_bits, align 4
  %53 = load ptr, ptr %6, align 8
  %54 = load i32, ptr %12, align 4
  %55 = call ptr @proto_tree_add_bits_item(ptr noundef %51, i32 noundef %52, ptr noundef %53, i32 noundef %54, i32 noundef 4, i32 noundef 0)
  %56 = load i32, ptr %10, align 4
  %57 = add i32 %56, 1
  store i32 %57, ptr %10, align 4
  %58 = load i32, ptr %9, align 4
  %59 = load i32, ptr %10, align 4
  %60 = load i32, ptr %11, align 4
  %61 = sub i32 %59, %60
  %62 = icmp ugt i32 %58, %61
  br i1 %62, label %63, label %74

63:                                               ; preds = %23
  %64 = load ptr, ptr %8, align 8
  %65 = load ptr, ptr %7, align 8
  %66 = load ptr, ptr %6, align 8
  %67 = load i32, ptr %10, align 4
  %68 = load i32, ptr %9, align 4
  %69 = load i32, ptr %10, align 4
  %70 = load i32, ptr %11, align 4
  %71 = sub i32 %69, %70
  %72 = sub i32 %68, %71
  %73 = call ptr @proto_tree_add_expert(ptr noundef %64, ptr noundef %65, ptr noundef @ei_ansi_801_extraneous_data, ptr noundef %66, i32 noundef %67, i32 noundef %72)
  br label %74

74:                                               ; preds = %63, %23
  store i32 0, ptr %13, align 4
  br label %75

75:                                               ; preds = %74, %16
  call void @llvm.lifetime.end.p0(i64 4, ptr %12) #6
  call void @llvm.lifetime.end.p0(i64 4, ptr %11) #6
  %76 = load i32, ptr %13, align 4
  switch i32 %76, label %78 [
    i32 0, label %77
    i32 1, label %77
  ]

77:                                               ; preds = %75, %75
  ret void

78:                                               ; preds = %75
  unreachable
}