; Function Attrs: null_pointer_is_valid sspstrong uwtable
define internal void @rev_req_gps_acq_ass(ptr noundef %0, ptr noundef %1, ptr noundef %2, i32 noundef %3, i32 noundef %4) #0 {
  %6 = icmp eq i32 %3, 0
  br i1 %6, label %7, label %9

7:                                                ; preds = %5
  %8 = tail call ptr @proto_tree_add_expert(ptr noundef %2, ptr noundef %1, ptr noundef nonnull @ei_ansi_801_short_data, ptr noundef %0, i32 noundef %4, i32 noundef 0)
  br label %29

9:                                                ; preds = %5
  %10 = shl i32 %4, 3
  %11 = load i32, ptr @hf_ansi_801_dopp_req, align 4
  %12 = or disjoint i32 %10, 1
  %13 = tail call ptr @proto_tree_add_bits_item(ptr noundef %2, i32 noundef %11, ptr noundef %0, i32 noundef %10, i32 noundef 1, i32 noundef 0)
  %14 = load i32, ptr @hf_ansi_801_add_dopp_req, align 4
  %15 = or disjoint i32 %10, 2
  %16 = tail call ptr @proto_tree_add_bits_item(ptr noundef %2, i32 noundef %14, ptr noundef %0, i32 noundef %12, i32 noundef 1, i32 noundef 0)
  %17 = load i32, ptr @hf_ansi_801_code_ph_par_req, align 4
  %18 = or disjoint i32 %10, 3
  %19 = tail call ptr @proto_tree_add_bits_item(ptr noundef %2, i32 noundef %17, ptr noundef %0, i32 noundef %15, i32 noundef 1, i32 noundef 0)
  %20 = load i32, ptr @hf_ansi_801_az_el_req, align 4
  %21 = or disjoint i32 %10, 4
  %22 = tail call ptr @proto_tree_add_bits_item(ptr noundef %2, i32 noundef %20, ptr noundef %0, i32 noundef %18, i32 noundef 1, i32 noundef 0)
  %23 = load i32, ptr @hf_ansi_801_reserved_bits, align 4
  %24 = tail call ptr @proto_tree_add_bits_item(ptr noundef %2, i32 noundef %23, ptr noundef %0, i32 noundef %21, i32 noundef 4, i32 noundef 0)
  %.not = icmp eq i32 %3, 1
  br i1 %.not, label %29, label %25

25:                                               ; preds = %9
  %26 = add i32 %4, 1
  %27 = add i32 %3, -1
  %28 = tail call ptr @proto_tree_add_expert(ptr noundef %2, ptr noundef %1, ptr noundef nonnull @ei_ansi_801_extraneous_data, ptr noundef %0, i32 noundef %26, i32 noundef %27)
  br label %29

29:                                               ; preds = %9, %25, %7
  ret void
}